Certificate:
    Data:
        Version: 3 (0x2)
        Serial Number: 1 (0x1)
        Signature Algorithm: sha512WithRSAEncryption
        Issuer: C=BA, ST=RS, L=Banja Luka, O=Elektrotehnicki fakultet, OU=ETF, CN=Root CA
        Validity
            Not Before: Jan 29 10:13:34 2022 GMT
            Not After : Jan 29 10:13:34 2023 GMT
        Subject: C=BA, ST=RS, O=Elektrotehnicki fakultet, OU=ETF, CN=CA 1
        Subject Public Key Info:
            Public Key Algorithm: rsaEncryption
                RSA Public-Key: (4096 bit)
                Modulus:
                    00:b8:05:4d:af:68:bc:9c:e6:a8:42:64:4e:f6:b1:
                    5a:40:10:83:23:1e:28:a9:07:d7:60:1f:a1:04:89:
                    37:66:52:0f:24:d9:68:f7:c3:28:ed:bb:e9:b0:c7:
                    53:5b:b0:2f:87:30:39:3c:2c:e9:c9:3d:16:db:b7:
                    8a:cf:45:c3:3f:dc:92:a9:78:c3:6f:57:81:a8:d0:
                    de:fb:4a:ee:86:b5:16:da:87:e6:62:a8:ea:31:40:
                    1e:a0:ea:eb:a7:11:1f:f7:59:c3:55:1b:40:90:df:
                    3c:6a:c8:b4:d6:b5:d5:be:13:17:d5:1c:b6:37:ea:
                    72:54:09:0b:69:ff:fb:94:22:eb:bc:63:3a:c7:0a:
                    8f:a0:50:c8:9e:23:8c:92:9a:41:c9:f7:37:88:01:
                    28:79:a0:5d:da:aa:36:48:1d:76:70:e0:75:1a:d4:
                    37:99:f9:53:26:e0:2d:82:47:0d:69:e7:81:ec:e5:
                    c1:a2:49:00:b4:8e:81:0c:58:06:c9:05:36:50:43:
                    2f:33:4c:c3:e1:be:9e:62:04:27:f7:1a:16:19:a5:
                    96:49:b9:e9:61:b9:60:cd:7f:23:f3:11:b6:8a:8f:
                    c3:63:93:39:06:13:cb:f6:44:68:e3:e7:2f:ef:ed:
                    c5:33:cf:6f:65:fd:0c:b6:b7:c7:dc:6f:b6:d4:c8:
                    02:9a:7b:09:7c:74:6b:ec:4c:57:8a:e2:63:bc:93:
                    96:95:27:ec:3c:24:27:12:18:9c:0a:0d:26:d9:ae:
                    73:3a:76:22:46:64:0f:e8:b6:4e:0b:47:ba:a0:8b:
                    73:2e:50:d1:58:18:a8:ce:f5:0b:18:12:67:7e:c0:
                    f8:25:2d:ca:b1:24:59:4d:f7:6e:d0:e2:6e:60:9b:
                    bd:5a:42:bf:98:6d:2b:f0:0b:9a:f2:c2:b3:ee:dc:
                    af:ee:a5:e4:85:9a:48:46:04:c1:6c:54:f0:39:ec:
                    75:b0:29:0e:9a:62:26:12:ff:86:65:72:cd:03:52:
                    7d:1d:d3:87:b2:ba:65:dc:d9:67:7f:09:08:ad:56:
                    6e:b6:89:41:2d:9d:62:66:81:89:9f:d6:81:14:5c:
                    d5:2f:b9:ae:3c:01:c5:ed:e3:27:01:79:c3:03:3e:
                    3b:b5:09:ff:fa:5b:16:e1:4e:a8:8e:77:18:0e:6b:
                    43:6c:89:ef:6e:69:c7:8b:03:e6:9a:a9:13:5b:12:
                    bc:0e:d2:79:47:61:53:d3:bb:ff:a1:c0:6e:11:e4:
                    99:37:05:fb:7f:e0:30:72:ee:d0:bb:c3:6e:5a:c4:
                    9e:af:73:4d:68:50:18:f9:59:25:ab:d6:db:fd:f6:
                    37:72:b5:d1:01:c7:f8:90:e8:d6:9a:0d:2e:e4:de:
                    4d:ff:83
                Exponent: 65537 (0x10001)
        X509v3 extensions:
            X509v3 Basic Constraints: 
                CA:TRUE
            X509v3 Key Usage: 
                Digital Signature, Key Agreement, Certificate Sign, CRL Sign
            Netscape Comment: 
                OpenSSL Generated Certificate
            X509v3 Subject Key Identifier: 
                BC:5A:8C:ED:6F:1D:50:8E:E1:48:C2:FB:66:40:77:2A:D3:A9:0E:D0
            X509v3 Authority Key Identifier: 
                keyid:69:F1:01:9C:4D:FC:2E:3C:46:04:C5:D6:83:C5:92:FD:59:0E:CD:8D

            X509v3 CRL Distribution Points: 

                Full Name:
                  URI:http://192.168.21.89/rootcrl.pem

    Signature Algorithm: sha512WithRSAEncryption
         af:e6:6d:d9:d4:b2:83:8a:37:ca:c3:5c:a0:91:7b:ea:12:d0:
         e1:d1:b1:3f:f5:d3:6c:c0:37:14:48:0f:d0:ca:39:50:50:d9:
         de:63:b8:df:1e:7a:ee:e5:66:8c:85:0c:13:1a:27:1e:8a:90:
         13:4b:37:8a:cb:3c:e6:20:cc:07:7f:ab:a3:50:0f:df:4d:4c:
         24:ad:fe:74:1f:12:fd:f7:ee:a5:4b:5c:da:f0:d3:b3:9c:86:
         8a:5a:48:e7:25:ec:49:e2:de:93:bb:81:90:16:f2:04:f7:6b:
         ef:a8:b1:9c:41:25:ab:57:57:71:f0:92:c3:37:25:91:86:c3:
         05:05:16:a4:4d:d3:81:94:cc:38:bb:b2:0c:5f:9e:3f:25:15:
         64:f0:2e:50:7e:f9:dd:9f:52:1b:dc:00:4b:78:5d:fa:72:39:
         e1:1f:d1:2d:b1:1b:5a:0a:f0:71:47:5f:e5:4e:8b:ce:cf:70:
         c0:50:e8:02:61:5f:bd:5d:df:b1:d9:a0:ce:50:df:e4:16:c9:
         1d:17:08:1f:58:9c:f2:24:ff:db:4f:22:5b:99:4c:3b:f4:9d:
         ff:ae:2e:f0:b3:ed:e4:e3:7d:28:86:c4:4c:57:f4:30:14:55:
         1f:06:82:ae:32:9c:cc:c3:38:24:8b:4a:9a:94:77:57:b1:a3:
         a2:5f:0f:4e:d8:ca:f6:72:21:06:56:0d:4d:f4:ea:63:9a:62:
         40:45:ea:6c:70:af:ed:65:cb:84:83:3f:43:35:66:a4:56:21:
         c9:02:f7:4b:50:a8:e4:e1:d7:2a:3a:41:6c:67:02:04:ce:5b:
         97:e3:b8:ea:4c:2a:93:08:15:d8:39:7e:de:df:74:da:05:33:
         a4:eb:38:e6:c6:9e:dc:e2:ec:cb:f8:f4:8d:68:7c:f0:24:ec:
         5c:22:80:7c:05:7f:b8:6d:c7:db:95:94:2d:9c:40:0c:92:1e:
         3a:1b:21:67:ea:24:65:c7:c1:47:0d:32:a2:ab:0f:1e:b3:c1:
         1b:8c:fa:1d:2b:60:86:44:a5:ac:6f:2c:c6:9e:45:0f:cb:aa:
         6a:74:ed:0f:52:fd:83:2a:98:50:da:c4:e1:3f:ac:7c:6b:17:
         10:9f:22:84:15:77:a0:b5:bd:6c:34:50:8e:d4:b8:38:45:c4:
         2e:6a:9f:d9:63:74:4c:80:68:81:60:83:1d:b9:74:06:bd:65:
         83:20:89:85:10:d5:df:d7:00:59:d8:7b:82:31:bf:0a:1c:84:
         d9:8b:a8:9f:b6:fb:b9:06:e1:8f:d5:9f:cb:fe:31:ea:ca:3c:
         c7:bd:94:5d:6d:6c:a0:b4:d7:34:9a:02:05:41:dd:1f:97:fc:
         49:e3:66:4b:b6:9e:fd:6b
-----BEGIN CERTIFICATE-----
MIIGBzCCA++gAwIBAgIBATANBgkqhkiG9w0BAQ0FADByMQswCQYDVQQGEwJCQTEL
MAkGA1UECBMCUlMxEzARBgNVBAcTCkJhbmphIEx1a2ExITAfBgNVBAoTGEVsZWt0
cm90ZWhuaWNraSBmYWt1bHRldDEMMAoGA1UECxMDRVRGMRAwDgYDVQQDEwdSb290
IENBMB4XDTIyMDEyOTEwMTMzNFoXDTIzMDEyOTEwMTMzNFowWjELMAkGA1UEBhMC
QkExCzAJBgNVBAgTAlJTMSEwHwYDVQQKExhFbGVrdHJvdGVobmlja2kgZmFrdWx0
ZXQxDDAKBgNVBAsTA0VURjENMAsGA1UEAxMEQ0EgMTCCAiIwDQYJKoZIhvcNAQEB
BQADggIPADCCAgoCggIBALgFTa9ovJzmqEJkTvaxWkAQgyMeKKkH12AfoQSJN2ZS
DyTZaPfDKO276bDHU1uwL4cwOTws6ck9Ftu3is9Fwz/ckql4w29XgajQ3vtK7oa1
FtqH5mKo6jFAHqDq66cRH/dZw1UbQJDfPGrItNa11b4TF9UctjfqclQJC2n/+5Qi
67xjOscKj6BQyJ4jjJKaQcn3N4gBKHmgXdqqNkgddnDgdRrUN5n5UybgLYJHDWnn
gezlwaJJALSOgQxYBskFNlBDLzNMw+G+nmIEJ/caFhmllkm56WG5YM1/I/MRtoqP
w2OTOQYTy/ZEaOPnL+/txTPPb2X9DLa3x9xvttTIApp7CXx0a+xMV4riY7yTlpUn
7DwkJxIYnAoNJtmuczp2IkZkD+i2TgtHuqCLcy5Q0VgYqM71CxgSZ37A+CUtyrEk
WU33btDibmCbvVpCv5htK/ALmvLCs+7cr+6l5IWaSEYEwWxU8DnsdbApDppiJhL/
hmVyzQNSfR3Th7K6ZdzZZ38JCK1WbraJQS2dYmaBiZ/WgRRc1S+5rjwBxe3jJwF5
wwM+O7UJ//pbFuFOqI53GA5rQ2yJ725px4sD5pqpE1sSvA7SeUdhU9O7/6HAbhHk
mTcF+3/gMHLu0LvDblrEnq9zTWhQGPlZJavW2/32N3K10QHH+JDo1poNLuTeTf+D
AgMBAAGjgb8wgbwwDAYDVR0TBAUwAwEB/zALBgNVHQ8EBAMCAY4wLAYJYIZIAYb4
QgENBB8WHU9wZW5TU0wgR2VuZXJhdGVkIENlcnRpZmljYXRlMB0GA1UdDgQWBBS8
Woztbx1QjuFIwvtmQHcq06kO0DAfBgNVHSMEGDAWgBRp8QGcTfwuPEYExdaDxZL9
WQ7NjTAxBgNVHR8EKjAoMCagJKAihiBodHRwOi8vMTkyLjE2OC4yMS44OS9yb290
Y3JsLnBlbTANBgkqhkiG9w0BAQ0FAAOCAgEAr+Zt2dSyg4o3ysNcoJF76hLQ4dGx
P/XTbMA3FEgP0Mo5UFDZ3mO43x567uVmjIUMExonHoqQE0s3iss85iDMB3+ro1AP
301MJK3+dB8S/ffupUtc2vDTs5yGilpI5yXsSeLek7uBkBbyBPdr76ixnEElq1dX
cfCSwzclkYbDBQUWpE3TgZTMOLuyDF+ePyUVZPAuUH753Z9SG9wAS3hd+nI54R/R
LbEbWgrwcUdf5U6Lzs9wwFDoAmFfvV3fsdmgzlDf5BbJHRcIH1ic8iT/208iW5lM
O/Sd/64u8LPt5ON9KIbETFf0MBRVHwaCrjKczMM4JItKmpR3V7Gjol8PTtjK9nIh
BlYNTfTqY5piQEXqbHCv7WXLhIM/QzVmpFYhyQL3S1Co5OHXKjpBbGcCBM5bl+O4
6kwqkwgV2Dl+3t902gUzpOs45sae3OLsy/j0jWh88CTsXCKAfAV/uG3H25WULZxA
DJIeOhshZ+okZcfBRw0yoqsPHrPBG4z6HStghkSlrG8sxp5FD8uqanTtD1L9gyqY
UNrE4T+sfGsXEJ8ihBV3oLW9bDRQjtS4OEXELmqf2WN0TIBogWCDHbl0Br1lgyCJ
hRDV39cAWdh7gjG/ChyE2Yuon7b7uQbhj9Wfy/4x6so8x72UXW1soLTXNJoCBUHd
H5f8SeNmS7ae/Ws=
-----END CERTIFICATE-----
