Certificate:
    Data:
        Version: 3 (0x2)
        Serial Number: 2 (0x2)
        Signature Algorithm: sha512WithRSAEncryption
        Issuer: C=BA, ST=RS, L=Banja Luka, O=Elektrotehnicki fakultet, OU=ETF, CN=Root CA
        Validity
            Not Before: Jan 29 10:14:26 2022 GMT
            Not After : Jan 29 10:14:26 2023 GMT
        Subject: C=BA, ST=RS, O=Elektrotehnicki fakultet, OU=ETF, CN=CA 2
        Subject Public Key Info:
            Public Key Algorithm: rsaEncryption
                RSA Public-Key: (4096 bit)
                Modulus:
                    00:9f:d4:29:5c:78:6f:08:9d:19:bf:22:3b:27:74:
                    76:2b:66:2f:44:de:8a:15:80:72:57:b6:5b:3c:32:
                    b5:f5:26:64:e2:30:c1:db:8d:7e:d6:75:41:9a:d0:
                    09:39:4a:c6:dc:23:94:6b:6a:0d:41:f9:d1:9e:76:
                    cd:75:d3:3e:74:94:e2:db:c8:46:20:39:40:74:1a:
                    0e:bc:ca:e8:76:d4:b7:e5:a0:ca:7d:b0:ed:a0:51:
                    d6:92:24:f6:7e:37:29:cf:5e:fa:80:cc:04:1c:de:
                    76:3e:e0:c5:86:59:9d:52:96:ac:f2:fa:53:e6:96:
                    59:2f:3d:a5:b3:b2:9e:a9:a8:ea:f8:2f:85:6e:c3:
                    09:a7:b2:4a:54:51:1a:ea:6d:9f:42:c5:49:32:c6:
                    64:68:95:6c:77:f5:fa:93:8a:0e:57:12:b1:7c:bf:
                    6c:c0:ac:b1:f0:4c:2a:8d:5e:f1:fa:d4:0d:c4:61:
                    56:11:2e:a2:5e:40:1c:f3:31:bf:89:0e:b1:09:da:
                    57:06:88:b8:b5:17:e5:06:14:90:66:dc:05:00:13:
                    b9:4f:04:24:5d:df:d8:23:c5:87:43:05:65:8d:d8:
                    d8:12:2f:95:d9:8e:a8:64:ef:ee:f6:d6:07:1e:73:
                    b9:b3:68:1b:dc:a2:82:8b:3d:70:db:b2:b5:20:e7:
                    d2:00:4a:75:21:13:c6:bc:cf:ae:46:58:cc:a2:5f:
                    7c:6c:63:c6:1d:41:53:07:d7:16:c4:b2:7f:e3:fd:
                    c2:d1:74:c6:2e:ab:6e:3e:62:ad:55:46:64:c3:fd:
                    26:f1:6d:b5:88:89:50:9f:b2:72:ed:be:6e:54:15:
                    ce:31:e4:fc:00:20:f1:cb:21:7d:a6:ea:4a:47:17:
                    53:c4:80:95:db:9a:5a:99:b1:3a:ef:26:ed:21:be:
                    91:5a:42:c2:a7:00:29:d9:a5:d4:a6:7f:f0:5d:5e:
                    54:39:df:9b:45:28:44:53:fe:50:ed:0b:83:bb:d7:
                    31:eb:26:3e:69:14:f6:3d:ba:dd:15:ae:47:0a:f5:
                    85:0b:17:f7:02:09:36:41:d6:1b:67:16:9e:94:fe:
                    37:32:19:25:16:f1:ac:3b:bd:80:0c:74:4c:b2:b5:
                    21:bd:b1:46:39:00:91:de:7c:55:2d:2b:50:39:14:
                    7c:8d:04:ea:d0:72:2f:26:2c:42:d1:38:ba:f4:69:
                    d9:ad:94:07:3c:ff:10:f1:1e:1e:09:88:91:a8:25:
                    3b:d3:d8:06:01:b2:99:cb:bc:06:bd:66:23:a0:65:
                    f2:37:f9:34:05:8f:4f:8e:1f:88:6c:99:36:9d:87:
                    3a:ef:ad:69:03:e6:88:36:e8:3f:d9:f6:47:00:84:
                    ff:e1:65
                Exponent: 65537 (0x10001)
        X509v3 extensions:
            X509v3 Basic Constraints: 
                CA:TRUE
            X509v3 Key Usage: 
                Digital Signature, Key Agreement, Certificate Sign, CRL Sign
            Netscape Comment: 
                OpenSSL Generated Certificate
            X509v3 Subject Key Identifier: 
                05:8B:6D:E3:69:EA:B9:7E:0E:9B:8A:58:A1:B7:82:C2:8D:AF:2C:21
            X509v3 Authority Key Identifier: 
                keyid:69:F1:01:9C:4D:FC:2E:3C:46:04:C5:D6:83:C5:92:FD:59:0E:CD:8D

            X509v3 CRL Distribution Points: 

                Full Name:
                  URI:http://192.168.21.89/rootcrl.pem

    Signature Algorithm: sha512WithRSAEncryption
         6f:73:94:ed:31:cb:49:8d:7d:a1:47:d1:4b:59:d6:46:1c:73:
         58:c6:ba:f1:97:be:12:ff:cb:13:b9:9e:a2:81:24:0e:f8:52:
         c4:d3:00:f0:19:9c:65:a3:3c:df:ad:60:99:a1:09:f6:5b:4b:
         ea:9e:60:3d:11:99:ea:e8:f1:db:d8:53:26:ef:d6:7f:e5:5c:
         ff:d3:ec:4a:90:d2:2a:db:96:7a:62:03:9b:11:8f:86:56:79:
         9e:10:f9:9d:65:2b:42:61:76:1c:85:92:82:11:8b:d2:bb:65:
         68:9b:97:77:79:d9:99:25:e6:92:6a:b8:75:cd:a9:59:b3:65:
         07:e8:06:c7:cf:d7:37:46:3b:98:9d:e8:9e:56:29:f7:8d:79:
         29:84:59:66:9f:6e:31:7f:cf:f6:bd:d0:55:1c:e8:a3:d0:3a:
         90:46:f9:c6:25:88:d5:f8:00:67:e6:2d:e8:c5:8f:8b:8f:f7:
         3d:45:a5:99:a6:a3:c7:a4:6e:e9:6a:9d:28:dd:57:b1:88:8e:
         0d:32:da:a3:48:9d:e5:8d:27:29:e0:45:60:ff:a0:ff:d9:7a:
         c3:2a:8c:c6:cf:a3:eb:e7:fc:f9:c8:39:15:63:3a:05:dd:df:
         73:c4:dd:4b:49:65:7a:d4:4e:7e:42:6e:e6:cc:d3:e9:41:3f:
         9e:2e:3a:f0:4b:6e:80:69:9c:cf:22:84:d1:d4:44:ec:73:4d:
         25:aa:a7:91:53:6e:91:e7:25:30:ec:83:04:76:30:c6:74:79:
         7f:01:f3:6d:b9:9e:01:6e:a6:00:2f:a5:5b:8d:09:13:e3:6f:
         03:1a:45:91:ce:33:b8:af:65:85:1b:5c:ed:40:d7:e2:e7:00:
         dc:3f:1d:ef:0a:fe:c5:5b:ca:31:5e:00:22:f8:f7:bf:36:e3:
         3b:f3:22:ec:13:7e:24:dc:28:64:06:60:e5:a4:c3:d6:1f:68:
         7d:2d:15:e5:5f:c6:1b:63:d2:a9:ba:01:f2:a3:48:94:31:59:
         21:c9:60:4c:3e:a2:98:5e:d9:66:a8:dc:39:01:92:7e:a9:63:
         69:f9:fd:df:28:b3:c7:3e:ca:bd:f1:84:53:56:54:42:0c:c6:
         22:8b:2c:95:2f:c7:1c:27:fa:bb:0c:96:6d:44:ea:1c:07:5d:
         3a:c9:8c:b8:be:0e:d3:9f:99:a4:f1:ad:8c:3e:bb:f7:a2:4a:
         df:26:c2:c3:24:81:8e:23:b1:d3:cc:68:cd:be:16:c5:db:d9:
         d4:c4:0d:6e:0e:64:75:43:fa:80:1b:07:aa:4f:f8:a0:52:c0:
         f0:f4:6e:4c:e4:0d:90:dc:ef:e6:4c:2b:a6:5e:17:e2:5a:86:
         80:05:4c:2d:8f:e0:44:b9
-----BEGIN CERTIFICATE-----
MIIGBzCCA++gAwIBAgIBAjANBgkqhkiG9w0BAQ0FADByMQswCQYDVQQGEwJCQTEL
MAkGA1UECBMCUlMxEzARBgNVBAcTCkJhbmphIEx1a2ExITAfBgNVBAoTGEVsZWt0
cm90ZWhuaWNraSBmYWt1bHRldDEMMAoGA1UECxMDRVRGMRAwDgYDVQQDEwdSb290
IENBMB4XDTIyMDEyOTEwMTQyNloXDTIzMDEyOTEwMTQyNlowWjELMAkGA1UEBhMC
QkExCzAJBgNVBAgTAlJTMSEwHwYDVQQKExhFbGVrdHJvdGVobmlja2kgZmFrdWx0
ZXQxDDAKBgNVBAsTA0VURjENMAsGA1UEAxMEQ0EgMjCCAiIwDQYJKoZIhvcNAQEB
BQADggIPADCCAgoCggIBAJ/UKVx4bwidGb8iOyd0ditmL0TeihWAcle2WzwytfUm
ZOIwwduNftZ1QZrQCTlKxtwjlGtqDUH50Z52zXXTPnSU4tvIRiA5QHQaDrzK6HbU
t+Wgyn2w7aBR1pIk9n43Kc9e+oDMBBzedj7gxYZZnVKWrPL6U+aWWS89pbOynqmo
6vgvhW7DCaeySlRRGuptn0LFSTLGZGiVbHf1+pOKDlcSsXy/bMCssfBMKo1e8frU
DcRhVhEuol5AHPMxv4kOsQnaVwaIuLUX5QYUkGbcBQATuU8EJF3f2CPFh0MFZY3Y
2BIvldmOqGTv7vbWBx5zubNoG9yigos9cNuytSDn0gBKdSETxrzPrkZYzKJffGxj
xh1BUwfXFsSyf+P9wtF0xi6rbj5irVVGZMP9JvFttYiJUJ+ycu2+blQVzjHk/AAg
8cshfabqSkcXU8SAlduaWpmxOu8m7SG+kVpCwqcAKdml1KZ/8F1eVDnfm0UoRFP+
UO0Lg7vXMesmPmkU9j263RWuRwr1hQsX9wIJNkHWG2cWnpT+NzIZJRbxrDu9gAx0
TLK1Ib2xRjkAkd58VS0rUDkUfI0E6tByLyYsQtE4uvRp2a2UBzz/EPEeHgmIkagl
O9PYBgGymcu8Br1mI6Bl8jf5NAWPT44fiGyZNp2HOu+taQPmiDboP9n2RwCE/+Fl
AgMBAAGjgb8wgbwwDAYDVR0TBAUwAwEB/zALBgNVHQ8EBAMCAY4wLAYJYIZIAYb4
QgENBB8WHU9wZW5TU0wgR2VuZXJhdGVkIENlcnRpZmljYXRlMB0GA1UdDgQWBBQF
i23jaeq5fg6biliht4LCja8sITAfBgNVHSMEGDAWgBRp8QGcTfwuPEYExdaDxZL9
WQ7NjTAxBgNVHR8EKjAoMCagJKAihiBodHRwOi8vMTkyLjE2OC4yMS44OS9yb290
Y3JsLnBlbTANBgkqhkiG9w0BAQ0FAAOCAgEAb3OU7THLSY19oUfRS1nWRhxzWMa6
8Ze+Ev/LE7meooEkDvhSxNMA8BmcZaM8361gmaEJ9ltL6p5gPRGZ6ujx29hTJu/W
f+Vc/9PsSpDSKtuWemIDmxGPhlZ5nhD5nWUrQmF2HIWSghGL0rtlaJuXd3nZmSXm
kmq4dc2pWbNlB+gGx8/XN0Y7mJ3onlYp9415KYRZZp9uMX/P9r3QVRzoo9A6kEb5
xiWI1fgAZ+Yt6MWPi4/3PUWlmaajx6Ru6WqdKN1XsYiODTLao0id5Y0nKeBFYP+g
/9l6wyqMxs+j6+f8+cg5FWM6Bd3fc8TdS0lletROfkJu5szT6UE/ni468EtugGmc
zyKE0dRE7HNNJaqnkVNukeclMOyDBHYwxnR5fwHzbbmeAW6mAC+lW40JE+NvAxpF
kc4zuK9lhRtc7UDX4ucA3D8d7wr+xVvKMV4AIvj3vzbjO/Mi7BN+JNwoZAZg5aTD
1h9ofS0V5V/GG2PSqboB8qNIlDFZIclgTD6imF7ZZqjcOQGSfqljafn93yizxz7K
vfGEU1ZUQgzGIosslS/HHCf6uwyWbUTqHAddOsmMuL4O05+ZpPGtjD6796JK3ybC
wySBjiOx08xozb4WxdvZ1MQNbg5kdUP6gBsHqk/4oFLA8PRuTOQNkNzv5kwrpl4X
4lqGgAVMLY/gRLk=
-----END CERTIFICATE-----
